target datalayout = "e-m:e-p270:32:32-p271:32:32-p272:64:64-i64:64-i128:128-f80:128-n8:16:32:64-S128"
target triple = "x86_64-pc-linux-gnu"

%struct.reassembly_table = type { ptr, ptr, ptr, ptr, ptr }
%struct.reassembly_table_functions = type { ptr, ptr, ptr, ptr, ptr, ptr }

@lowpan_context_table = internal global ptr null, align 8
@.str.192 = private unnamed_addr constant [52 x i8] c"IPv6 over Low power Wireless Personal Area Networks\00", align 1
@.str.193 = private unnamed_addr constant [8 x i8] c"6LoWPAN\00", align 1
@.str.194 = private unnamed_addr constant [8 x i8] c"6lowpan\00", align 1
@proto_6lowpan = internal global i32 0, align 4
@handle_6lowpan = internal global ptr null, align 8
@lowpan_reassembly_table = internal global %struct.reassembly_table zeroinitializer, align 8
@addresses_reassembly_table_functions = external constant %struct.reassembly_table_functions, align 8
@lowpan_context_prefs = internal global [16 x ptr] zeroinitializer, align 16
@.str.195 = private unnamed_addr constant [29 x i8] c"rfc4944_short_address_format\00", align 1
@.str.196 = private unnamed_addr constant [33 x i8] c"Derive IID according to RFC 4944\00", align 1
@.str.197 = private unnamed_addr constant [81 x i8] c"Derive IID from a short 16-bit address according to RFC 4944 (using the PAN ID).\00", align 1
@rfc4944_short_address_format = internal global i8 0, align 1
@.str.198 = private unnamed_addr constant [28 x i8] c"iid_has_universal_local_bit\00", align 1
@.str.199 = private unnamed_addr constant [28 x i8] c"IID has Universal/Local bit\00", align 1
@.str.200 = private unnamed_addr constant [71 x i8] c"Linux kernels before version 4.12 does toggle the Universal/Local bit.\00", align 1
@iid_has_universal_local_bit = internal global i8 0, align 1
@.str.201 = private unnamed_addr constant [16 x i8] c"summary_in_tree\00", align 1
@.str.202 = private unnamed_addr constant [35 x i8] c"Show IPv6 summary in protocol tree\00", align 1
@.str.203 = private unnamed_addr constant [67 x i8] c"Whether the IPv6 summary line should be shown in the protocol tree\00", align 1
@ipv6_summary_in_tree = internal global i8 1, align 1
@.str.204 = private unnamed_addr constant [10 x i8] c"context%d\00", align 1
@.str.205 = private unnamed_addr constant [11 x i8] c"Context %d\00", align 1
@.str.206 = private unnamed_addr constant [55 x i8] c"IPv6 prefix to use for stateful address decompression.\00", align 1

; Function Attrs: alwaysinline nounwind
define internal ptr @memset.inline(ptr %0, i32 %1, i64 %2) #6 {
  %4 = alloca ptr, align 8
  %5 = alloca i32, align 4
  %6 = alloca i64, align 8
  store ptr %0, ptr %4, align 8
  store i32 %1, ptr %5, align 4
  store i64 %2, ptr %6, align 8
  %7 = load ptr, ptr %4, align 8
  %8 = load i32, ptr %5, align 4
  %9 = load i64, ptr %6, align 8
  %10 = load ptr, ptr %4, align 8
  %11 = call i64 @llvm.objectsize.i64.p0(ptr %10, i1 false, i1 true, i1 true)
  %12 = call ptr @__memset_chk(ptr noundef %7, i32 noundef %8, i64 noundef %9, i64 noundef %11) #15
  ret ptr %12
}

; Function Attrs: null_pointer_is_valid sspstrong uwtable
define hidden void @proto_register_6lowpan() #0 {
  %1 = alloca i32, align 4
  %2 = alloca ptr, align 8
  %3 = alloca ptr, align 8
  %4 = alloca ptr, align 8
  %5 = alloca ptr, align 8
  call void @llvm.lifetime.start.p0(i64 4, ptr %1) #15
  call void @llvm.lifetime.start.p0(i64 8, ptr %2) #15
  call void @llvm.lifetime.start.p0(i64 8, ptr %3) #15
  %6 = call ptr @g_hash_table_new_full(ptr noundef @lowpan_context_hash, ptr noundef @lowpan_context_equal, ptr noundef @lowpan_context_free, ptr noundef @lowpan_context_free)
  store ptr %6, ptr @lowpan_context_table, align 8
  %7 = call i32 @proto_register_protocol(ptr noundef @.str.192, ptr noundef @.str.193, ptr noundef @.str.194)
  store i32 %7, ptr @proto_6lowpan, align 4
  %8 = load i32, ptr @proto_6lowpan, align 4
  call void @proto_register_field_array(i32 noundef %8, ptr noundef @proto_register_6lowpan.hf, i32 noundef 101)
  call void @proto_register_subtree_array(ptr noundef @proto_register_6lowpan.ett, i32 noundef 14)
  %9 = load i32, ptr @proto_6lowpan, align 4
  %10 = call ptr @expert_register_protocol(i32 noundef %9)
  store ptr %10, ptr %3, align 8
  %11 = load ptr, ptr %3, align 8
  call void @expert_register_field_array(ptr noundef %11, ptr noundef @proto_register_6lowpan.ei, i32 noundef 4)
  %12 = load i32, ptr @proto_6lowpan, align 4
  %13 = call ptr @register_dissector(ptr noundef @.str.194, ptr noundef @dissect_6lowpan, i32 noundef %12)
  store ptr %13, ptr @handle_6lowpan, align 8
  call void @reassembly_table_register(ptr noundef @lowpan_reassembly_table, ptr noundef @addresses_reassembly_table_functions)
  call void @register_init_routine(ptr noundef @proto_init_6lowpan)
  call void @register_shutdown_routine(ptr noundef @proto_shutdown_6lowpan)
  %14 = call ptr @memset.inline(ptr noundef @lowpan_context_prefs, i32 noundef 0, i64 noundef 128) #15
  %15 = load i32, ptr @proto_6lowpan, align 4
  %16 = call ptr @prefs_register_protocol(i32 noundef %15, ptr noundef @prefs_6lowpan_apply)
  store ptr %16, ptr %2, align 8
  %17 = load ptr, ptr %2, align 8
  call void @prefs_register_bool_preference(ptr noundef %17, ptr noundef @.str.195, ptr noundef @.str.196, ptr noundef @.str.197, ptr noundef @rfc4944_short_address_format)
  %18 = load ptr, ptr %2, align 8
  call void @prefs_register_bool_preference(ptr noundef %18, ptr noundef @.str.198, ptr noundef @.str.199, ptr noundef @.str.200, ptr noundef @iid_has_universal_local_bit)
  %19 = load ptr, ptr %2, align 8
  call void @prefs_register_bool_preference(ptr noundef %19, ptr noundef @.str.201, ptr noundef @.str.202, ptr noundef @.str.203, ptr noundef @ipv6_summary_in_tree)
  store i32 0, ptr %1, align 4
  br label %20

20:                                               ; preds = %36, %0
  %21 = load i32, ptr %1, align 4
  %22 = icmp slt i32 %21, 16
  br i1 %22, label %23, label %39

23:                                               ; preds = %20
  call void @llvm.lifetime.start.p0(i64 8, ptr %4) #15
  call void @llvm.lifetime.start.p0(i64 8, ptr %5) #15
  %24 = call ptr @wmem_epan_scope()
  %25 = load i32, ptr %1, align 4
  %26 = call noalias ptr (ptr, ptr, ...) @wmem_strdup_printf(ptr noundef %24, ptr noundef @.str.204, i32 noundef %25)
  store ptr %26, ptr %4, align 8
  %27 = call ptr @wmem_epan_scope()
  %28 = load i32, ptr %1, align 4
  %29 = call noalias ptr (ptr, ptr, ...) @wmem_strdup_printf(ptr noundef %27, ptr noundef @.str.205, i32 noundef %28)
  store ptr %29, ptr %5, align 8
  %30 = load ptr, ptr %2, align 8
  %31 = load ptr, ptr %4, align 8
  %32 = load ptr, ptr %5, align 8
  %33 = load i32, ptr %1, align 4
  %34 = sext i32 %33 to i64
  %35 = getelementptr [16 x ptr], ptr @lowpan_context_prefs, i64 0, i64 %34
  call void @prefs_register_string_preference(ptr noundef %30, ptr noundef %31, ptr noundef %32, ptr noundef @.str.206, ptr noundef %35)
  call void @llvm.lifetime.end.p0(i64 8, ptr %5) #15
  call void @llvm.lifetime.end.p0(i64 8, ptr %4) #15
  br label %36

36:                                               ; preds = %23
  %37 = load i32, ptr %1, align 4
  %38 = add i32 %37, 1
  store i32 %38, ptr %1, align 4
  br label %20, !llvm.loop !6

39:                                               ; preds = %20
  call void @llvm.lifetime.end.p0(i64 8, ptr %3) #15
  call void @llvm.lifetime.end.p0(i64 8, ptr %2) #15
  call void @llvm.lifetime.end.p0(i64 4, ptr %1) #15
  ret void
}