; Function Attrs: null_pointer_is_valid sspstrong uwtable
define hidden void @proto_register_6lowpan() local_unnamed_addr #0 {
  %1 = tail call ptr @g_hash_table_new_full(ptr noundef nonnull @lowpan_context_hash, ptr noundef nonnull @lowpan_context_equal, ptr noundef nonnull @lowpan_context_free, ptr noundef nonnull @lowpan_context_free)
  store ptr %1, ptr @lowpan_context_table, align 8
  %2 = tail call i32 @proto_register_protocol(ptr noundef nonnull @.str.192, ptr noundef nonnull @.str.193, ptr noundef nonnull @.str.194)
  store i32 %2, ptr @proto_6lowpan, align 4
  tail call void @proto_register_field_array(i32 noundef %2, ptr noundef nonnull @proto_register_6lowpan.hf, i32 noundef 101)
  tail call void @proto_register_subtree_array(ptr noundef nonnull @proto_register_6lowpan.ett, i32 noundef 14)
  %3 = load i32, ptr @proto_6lowpan, align 4
  %4 = tail call ptr @expert_register_protocol(i32 noundef %3)
  tail call void @expert_register_field_array(ptr noundef %4, ptr noundef nonnull @proto_register_6lowpan.ei, i32 noundef 4)
  %5 = load i32, ptr @proto_6lowpan, align 4
  %6 = tail call ptr @register_dissector(ptr noundef nonnull @.str.194, ptr noundef nonnull @dissect_6lowpan, i32 noundef %5)
  store ptr %6, ptr @handle_6lowpan, align 8
  tail call void @reassembly_table_register(ptr noundef nonnull @lowpan_reassembly_table, ptr noundef nonnull @addresses_reassembly_table_functions)
  tail call void @register_init_routine(ptr noundef nonnull @proto_init_6lowpan)
  tail call void @register_shutdown_routine(ptr noundef nonnull @proto_shutdown_6lowpan)
  tail call void @llvm.memset.p0.i64(ptr noundef nonnull align 16 dereferenceable(128) @lowpan_context_prefs, i8 noundef 0, i64 noundef 128, i1 noundef false) #13
  %7 = load i32, ptr @proto_6lowpan, align 4
  %8 = tail call ptr @prefs_register_protocol(i32 noundef %7, ptr noundef nonnull @prefs_6lowpan_apply)
  tail call void @prefs_register_bool_preference(ptr noundef %8, ptr noundef nonnull @.str.195, ptr noundef nonnull @.str.196, ptr noundef nonnull @.str.197, ptr noundef nonnull @rfc4944_short_address_format)
  tail call void @prefs_register_bool_preference(ptr noundef %8, ptr noundef nonnull @.str.198, ptr noundef nonnull @.str.199, ptr noundef nonnull @.str.200, ptr noundef nonnull @iid_has_universal_local_bit)
  tail call void @prefs_register_bool_preference(ptr noundef %8, ptr noundef nonnull @.str.201, ptr noundef nonnull @.str.202, ptr noundef nonnull @.str.203, ptr noundef nonnull @ipv6_summary_in_tree)
  br label %9

9:                                                ; preds = %0, %9
  %indvars.iv = phi i64 [ 0, %0 ], [ %indvars.iv.next, %9 ]
  %10 = tail call ptr @wmem_epan_scope()
  %11 = trunc nuw nsw i64 %indvars.iv to i32
  %12 = tail call noalias ptr (ptr, ptr, ...) @wmem_strdup_printf(ptr noundef %10, ptr noundef nonnull @.str.204, i32 noundef %11)
  %13 = tail call ptr @wmem_epan_scope()
  %14 = tail call noalias ptr (ptr, ptr, ...) @wmem_strdup_printf(ptr noundef %13, ptr noundef nonnull @.str.205, i32 noundef %11)
  %15 = getelementptr [16 x ptr], ptr @lowpan_context_prefs, i64 0, i64 %indvars.iv
  tail call void @prefs_register_string_preference(ptr noundef %8, ptr noundef %12, ptr noundef %14, ptr noundef nonnull @.str.206, ptr noundef %15)
  %indvars.iv.next = add nuw nsw i64 %indvars.iv, 1
  %exitcond.not = icmp eq i64 %indvars.iv.next, 16
  br i1 %exitcond.not, label %16, label %9, !llvm.loop !10

16:                                               ; preds = %9
  ret void
}